target datalayout = "e-m:e-p270:32:32-p271:32:32-p272:64:64-i64:64-i128:128-f80:128-n8:16:32:64-S128"
target triple = "x86_64-pc-linux-gnu"

%struct.H5T_t = type { %struct.H5O_shared_t, ptr, %struct.H5O_loc_t, %struct.H5G_name_t, ptr }
%struct.H5O_shared_t = type { i32, ptr, i32, %union.anon }
%union.anon = type { %struct.H5O_mesg_loc_t }
%struct.H5O_mesg_loc_t = type { i32, i64 }
%struct.H5O_loc_t = type { ptr, i64, i8 }
%struct.H5G_name_t = type { ptr, ptr, i32 }
%struct.H5T_shared_t = type { i64, i32, i32, i64, i32, i8, ptr, ptr, %union.anon.0 }
%union.anon.0 = type { %struct.H5T_array_t }
%struct.H5T_array_t = type { i64, i32, [32 x i64] }

@.str.2 = private unnamed_addr constant [97 x i8] c"generated/home/dtcxzyw/WorkSpace/Projects/compilers/llvm-opt-benchmark/bench/hdf5/hdf5/src/H5T.c\00", align 1
@H5E_DATATYPE_g = external global i64, align 8
@H5P_LST_DATASET_XFER_ID_g = external global i64, align 8
@H5E_CANTDEC_g = external global i64, align 8
@H5E_CANTOPENOBJ_g = external global i64, align 8
@__func__.H5T_convert_committed_datatype = private unnamed_addr constant [31 x i8] c"H5T_convert_committed_datatype\00", align 1
@H5E_CANTRESET_g = external global i64, align 8
@.str.324 = private unnamed_addr constant [30 x i8] c"unable to initialize location\00", align 1
@.str.325 = private unnamed_addr constant [21 x i8] c"unable to reset path\00", align 1
@H5E_CLOSEERROR_g = external global i64, align 8
@.str.326 = private unnamed_addr constant [25 x i8] c"unable to close datatype\00", align 1
@H5E_ATTR_g = external global i64, align 8
@.str.327 = private unnamed_addr constant [26 x i8] c"unable to free VOL object\00", align 1

; Function Attrs: nounwind uwtable
define i32 @H5T_is_named(ptr noundef %0) #0 {
  %2 = alloca ptr, align 8
  %3 = alloca i32, align 4
  store ptr %0, ptr %2, align 8
  store i32 0, ptr %3, align 4
  %4 = load ptr, ptr %2, align 8
  %5 = getelementptr inbounds %struct.H5T_t, ptr %4, i32 0, i32 4
  %6 = load ptr, ptr %5, align 8
  %7 = icmp ne ptr %6, null
  br i1 %7, label %8, label %9

8:                                                ; preds = %1
  store i32 1, ptr %3, align 4
  br label %26

9:                                                ; preds = %1
  %10 = load ptr, ptr %2, align 8
  %11 = getelementptr inbounds %struct.H5T_t, ptr %10, i32 0, i32 1
  %12 = load ptr, ptr %11, align 8
  %13 = getelementptr inbounds %struct.H5T_shared_t, ptr %12, i32 0, i32 1
  %14 = load i32, ptr %13, align 8
  %15 = icmp eq i32 4, %14
  br i1 %15, label %23, label %16

16:                                               ; preds = %9
  %17 = load ptr, ptr %2, align 8
  %18 = getelementptr inbounds %struct.H5T_t, ptr %17, i32 0, i32 1
  %19 = load ptr, ptr %18, align 8
  %20 = getelementptr inbounds %struct.H5T_shared_t, ptr %19, i32 0, i32 1
  %21 = load i32, ptr %20, align 8
  %22 = icmp eq i32 3, %21
  br label %23

23:                                               ; preds = %16, %9
  %24 = phi i1 [ true, %9 ], [ %22, %16 ]
  %25 = zext i1 %24 to i32
  store i32 %25, ptr %3, align 4
  br label %26

26:                                               ; preds = %23, %8
  %27 = load i32, ptr %3, align 4
  ret i32 %27
}

; Function Attrs: nounwind uwtable
define i32 @H5T_convert_committed_datatype(ptr noundef %0, ptr noundef %1) #0 {
  %3 = alloca ptr, align 8
  %4 = alloca ptr, align 8
  %5 = alloca i32, align 4
  %6 = alloca i8, align 1
  %7 = alloca ptr, align 8
  store ptr %0, ptr %3, align 8
  store ptr %1, ptr %4, align 8
  store i32 0, ptr %5, align 4
  store i8 0, ptr %6, align 1
  %8 = load ptr, ptr %3, align 8
  %9 = call i32 @H5T_is_named(ptr noundef %8)
  %10 = icmp ne i32 %9, 0
  br i1 %10, label %11, label %115

11:                                               ; preds = %2
  %12 = load ptr, ptr %3, align 8
  %13 = getelementptr inbounds %struct.H5T_t, ptr %12, i32 0, i32 0
  %14 = getelementptr inbounds %struct.H5O_shared_t, ptr %13, i32 0, i32 1
  %15 = load ptr, ptr %14, align 8
  %16 = load ptr, ptr %4, align 8
  %17 = icmp ne ptr %15, %16
  br i1 %17, label %18, label %115

18:                                               ; preds = %11
  %19 = load ptr, ptr %3, align 8
  %20 = call i32 @H5O_msg_reset_share(i32 noundef 3, ptr noundef %19)
  %21 = load ptr, ptr %3, align 8
  %22 = getelementptr inbounds %struct.H5T_t, ptr %21, i32 0, i32 2
  %23 = call i32 @H5O_loc_free(ptr noundef %22)
  %24 = icmp slt i32 %23, 0
  br i1 %24, label %25, label %40

25:                                               ; preds = %18
  br label %26

26:                                               ; preds = %25
  br label %27

27:                                               ; preds = %26
  br label %28

28:                                               ; preds = %27
  %29 = load i64, ptr @H5E_DATATYPE_g, align 8
  %30 = load i64, ptr @H5E_CANTRESET_g, align 8
  %31 = call i32 (ptr, ptr, i32, i64, i64, ptr, ...) @H5E_printf_stack(ptr noundef @.str.2, ptr noundef @__func__.H5T_convert_committed_datatype, i32 noundef 6090, i64 noundef %29, i64 noundef %30, ptr noundef @.str.324)
  br label %32

32:                                               ; preds = %28
  store i8 1, ptr %6, align 1
  %33 = load i8, ptr %6, align 1
  %34 = trunc i8 %33 to i1
  %35 = zext i1 %34 to i8
  store i8 %35, ptr %6, align 1
  br label %36

36:                                               ; preds = %32
  br label %37

37:                                               ; preds = %36
  store i32 -1, ptr %5, align 4
  br label %116

38:                                               ; No predecessors!
  br label %39

39:                                               ; preds = %38
  br label %40

40:                                               ; preds = %39, %18
  %41 = load ptr, ptr %3, align 8
  %42 = getelementptr inbounds %struct.H5T_t, ptr %41, i32 0, i32 3
  %43 = call i32 @H5G_name_free(ptr noundef %42)
  %44 = icmp slt i32 %43, 0
  br i1 %44, label %45, label %60

45:                                               ; preds = %40
  br label %46

46:                                               ; preds = %45
  br label %47

47:                                               ; preds = %46
  br label %48

48:                                               ; preds = %47
  %49 = load i64, ptr @H5E_DATATYPE_g, align 8
  %50 = load i64, ptr @H5E_CANTOPENOBJ_g, align 8
  %51 = call i32 (ptr, ptr, i32, i64, i64, ptr, ...) @H5E_printf_stack(ptr noundef @.str.2, ptr noundef @__func__.H5T_convert_committed_datatype, i32 noundef 6092, i64 noundef %49, i64 noundef %50, ptr noundef @.str.325)
  br label %52

52:                                               ; preds = %48
  store i8 1, ptr %6, align 1
  %53 = load i8, ptr %6, align 1
  %54 = trunc i8 %53 to i1
  %55 = zext i1 %54 to i8
  store i8 %55, ptr %6, align 1
  br label %56

56:                                               ; preds = %52
  br label %57

57:                                               ; preds = %56
  store i32 -1, ptr %5, align 4
  br label %116

58:                                               ; No predecessors!
  br label %59

59:                                               ; preds = %58
  br label %60

60:                                               ; preds = %59, %40
  %61 = load ptr, ptr %3, align 8
  %62 = getelementptr inbounds %struct.H5T_t, ptr %61, i32 0, i32 4
  %63 = load ptr, ptr %62, align 8
  %64 = icmp ne ptr null, %63
  br i1 %64, label %65, label %110

65:                                               ; preds = %60
  %66 = load ptr, ptr %3, align 8
  %67 = getelementptr inbounds %struct.H5T_t, ptr %66, i32 0, i32 4
  %68 = load ptr, ptr %67, align 8
  store ptr %68, ptr %7, align 8
  %69 = load ptr, ptr %7, align 8
  %70 = load i64, ptr @H5P_LST_DATASET_XFER_ID_g, align 8
  %71 = call i32 @H5VL_datatype_close(ptr noundef %69, i64 noundef %70, ptr noundef null)
  %72 = icmp slt i32 %71, 0
  br i1 %72, label %73, label %88

73:                                               ; preds = %65
  br label %74

74:                                               ; preds = %73
  br label %75

75:                                               ; preds = %74
  br label %76

76:                                               ; preds = %75
  %77 = load i64, ptr @H5E_DATATYPE_g, align 8
  %78 = load i64, ptr @H5E_CLOSEERROR_g, align 8
  %79 = call i32 (ptr, ptr, i32, i64, i64, ptr, ...) @H5E_printf_stack(ptr noundef @.str.2, ptr noundef @__func__.H5T_convert_committed_datatype, i32 noundef 6100, i64 noundef %77, i64 noundef %78, ptr noundef @.str.326)
  br label %80

80:                                               ; preds = %76
  store i8 1, ptr %6, align 1
  %81 = load i8, ptr %6, align 1
  %82 = trunc i8 %81 to i1
  %83 = zext i1 %82 to i8
  store i8 %83, ptr %6, align 1
  br label %84

84:                                               ; preds = %80
  br label %85

85:                                               ; preds = %84
  store i32 -1, ptr %5, align 4
  br label %116

86:                                               ; No predecessors!
  br label %87

87:                                               ; preds = %86
  br label %88

88:                                               ; preds = %87, %65
  %89 = load ptr, ptr %7, align 8
  %90 = call i32 @H5VL_free_object(ptr noundef %89)
  %91 = icmp slt i32 %90, 0
  br i1 %91, label %92, label %107

92:                                               ; preds = %88
  br label %93

93:                                               ; preds = %92
  br label %94

94:                                               ; preds = %93
  br label %95

95:                                               ; preds = %94
  %96 = load i64, ptr @H5E_ATTR_g, align 8
  %97 = load i64, ptr @H5E_CANTDEC_g, align 8
  %98 = call i32 (ptr, ptr, i32, i64, i64, ptr, ...) @H5E_printf_stack(ptr noundef @.str.2, ptr noundef @__func__.H5T_convert_committed_datatype, i32 noundef 6104, i64 noundef %96, i64 noundef %97, ptr noundef @.str.327)
  br label %99

99:                                               ; preds = %95
  store i8 1, ptr %6, align 1
  %100 = load i8, ptr %6, align 1
  %101 = trunc i8 %100 to i1
  %102 = zext i1 %101 to i8
  store i8 %102, ptr %6, align 1
  br label %103

103:                                              ; preds = %99
  br label %104

104:                                              ; preds = %103
  store i32 -1, ptr %5, align 4
  br label %116

105:                                              ; No predecessors!
  br label %106

106:                                              ; preds = %105
  br label %107

107:                                              ; preds = %106, %88
  %108 = load ptr, ptr %3, align 8
  %109 = getelementptr inbounds %struct.H5T_t, ptr %108, i32 0, i32 4
  store ptr null, ptr %109, align 8
  br label %110

110:                                              ; preds = %107, %60
  %111 = load ptr, ptr %3, align 8
  %112 = getelementptr inbounds %struct.H5T_t, ptr %111, i32 0, i32 1
  %113 = load ptr, ptr %112, align 8
  %114 = getelementptr inbounds %struct.H5T_shared_t, ptr %113, i32 0, i32 1
  store i32 0, ptr %114, align 8
  br label %115

115:                                              ; preds = %110, %11, %2
  br label %116

116:                                              ; preds = %115, %104, %85, %57, %37
  %117 = load i32, ptr %5, align 4
  ret i32 %117
}