; Function Attrs: nounwind uwtable
define range(i32 -1, 1) i32 @H5T_convert_committed_datatype(ptr noundef %0, ptr noundef readnone %1) local_unnamed_addr #0 {
  %3 = getelementptr inbounds i8, ptr %0, i64 96
  %4 = load ptr, ptr %3, align 8
  %.not.i = icmp eq ptr %4, null
  br i1 %.not.i, label %H5T_is_named.exit, label %H5T_is_named.exit.thread

H5T_is_named.exit:                                ; preds = %2
  %5 = getelementptr inbounds i8, ptr %0, i64 40
  %6 = load ptr, ptr %5, align 8
  %7 = getelementptr inbounds i8, ptr %6, i64 8
  %8 = load i32, ptr %7, align 8
  %9 = add i32 %8, -5
  %narrow.i = icmp ult i32 %9, -2
  br i1 %narrow.i, label %51, label %H5T_is_named.exit.thread

H5T_is_named.exit.thread:                         ; preds = %2, %H5T_is_named.exit
  %10 = getelementptr inbounds i8, ptr %0, i64 8
  %11 = load ptr, ptr %10, align 8
  %.not17 = icmp eq ptr %11, %1
  br i1 %.not17, label %51, label %12

12:                                               ; preds = %H5T_is_named.exit.thread
  %13 = tail call i32 @H5O_msg_reset_share(i32 noundef 3, ptr noundef nonnull %0) #17
  %14 = getelementptr inbounds i8, ptr %0, i64 48
  %15 = tail call i32 @H5O_loc_free(ptr noundef nonnull %14) #17
  %16 = icmp slt i32 %15, 0
  br i1 %16, label %17, label %21

17:                                               ; preds = %12
  %18 = load i64, ptr @H5E_DATATYPE_g, align 8
  %19 = load i64, ptr @H5E_CANTRESET_g, align 8
  %20 = tail call i32 (ptr, ptr, i32, i64, i64, ptr, ...) @H5E_printf_stack(ptr noundef nonnull @.str.2, ptr noundef nonnull @__func__.H5T_convert_committed_datatype, i32 noundef 6090, i64 noundef %18, i64 noundef %19, ptr noundef nonnull @.str.324) #17
  br label %51

21:                                               ; preds = %12
  %22 = getelementptr inbounds i8, ptr %0, i64 72
  %23 = tail call i32 @H5G_name_free(ptr noundef nonnull %22) #17
  %24 = icmp slt i32 %23, 0
  br i1 %24, label %25, label %29

25:                                               ; preds = %21
  %26 = load i64, ptr @H5E_DATATYPE_g, align 8
  %27 = load i64, ptr @H5E_CANTOPENOBJ_g, align 8
  %28 = tail call i32 (ptr, ptr, i32, i64, i64, ptr, ...) @H5E_printf_stack(ptr noundef nonnull @.str.2, ptr noundef nonnull @__func__.H5T_convert_committed_datatype, i32 noundef 6092, i64 noundef %26, i64 noundef %27, ptr noundef nonnull @.str.325) #17
  br label %51

29:                                               ; preds = %21
  %30 = load ptr, ptr %3, align 8
  %.not18 = icmp eq ptr %30, null
  br i1 %.not18, label %47, label %31

31:                                               ; preds = %29
  %32 = load i64, ptr @H5P_LST_DATASET_XFER_ID_g, align 8
  %33 = tail call i32 @H5VL_datatype_close(ptr noundef nonnull %30, i64 noundef %32, ptr noundef null) #17
  %34 = icmp slt i32 %33, 0
  br i1 %34, label %35, label %39

35:                                               ; preds = %31
  %36 = load i64, ptr @H5E_DATATYPE_g, align 8
  %37 = load i64, ptr @H5E_CLOSEERROR_g, align 8
  %38 = tail call i32 (ptr, ptr, i32, i64, i64, ptr, ...) @H5E_printf_stack(ptr noundef nonnull @.str.2, ptr noundef nonnull @__func__.H5T_convert_committed_datatype, i32 noundef 6100, i64 noundef %36, i64 noundef %37, ptr noundef nonnull @.str.326) #17
  br label %51

39:                                               ; preds = %31
  %40 = tail call i32 @H5VL_free_object(ptr noundef nonnull %30) #17
  %41 = icmp slt i32 %40, 0
  br i1 %41, label %42, label %46

42:                                               ; preds = %39
  %43 = load i64, ptr @H5E_ATTR_g, align 8
  %44 = load i64, ptr @H5E_CANTDEC_g, align 8
  %45 = tail call i32 (ptr, ptr, i32, i64, i64, ptr, ...) @H5E_printf_stack(ptr noundef nonnull @.str.2, ptr noundef nonnull @__func__.H5T_convert_committed_datatype, i32 noundef 6104, i64 noundef %43, i64 noundef %44, ptr noundef nonnull @.str.327) #17
  br label %51

46:                                               ; preds = %39
  store ptr null, ptr %3, align 8
  br label %47

47:                                               ; preds = %46, %29
  %48 = getelementptr inbounds i8, ptr %0, i64 40
  %49 = load ptr, ptr %48, align 8
  %50 = getelementptr inbounds i8, ptr %49, i64 8
  store i32 0, ptr %50, align 8
  br label %51

51:                                               ; preds = %H5T_is_named.exit, %H5T_is_named.exit.thread, %47, %42, %35, %25, %17
  %.0 = phi i32 [ -1, %17 ], [ -1, %25 ], [ -1, %35 ], [ -1, %42 ], [ 0, %47 ], [ 0, %H5T_is_named.exit.thread ], [ 0, %H5T_is_named.exit ]
  ret i32 %.0
}